target datalayout = "e-m:e-p270:32:32-p271:32:32-p272:64:64-i64:64-i128:128-f80:128-n8:16:32:64-S128"
target triple = "x86_64-pc-linux-gnu"

; Function Attrs: nounwind uwtable
define i32 @stbtt_GetFontOffsetForIndex(ptr noundef %0, i32 noundef %1) #0 {
  %3 = alloca ptr, align 8
  %4 = alloca i32, align 4
  store ptr %0, ptr %3, align 8, !tbaa !25
  store i32 %1, ptr %4, align 4, !tbaa !14
  %5 = load ptr, ptr %3, align 8, !tbaa !25
  %6 = load i32, ptr %4, align 4, !tbaa !14
  %7 = call i32 @stbtt_GetFontOffsetForIndex_internal(ptr noundef %5, i32 noundef %6)
  ret i32 %7
}

; Function Attrs: nounwind uwtable
define i32 @stbtt_FindMatchingFont_internal(ptr noundef %0, ptr noundef %1, i32 noundef %2) #0 {
  %4 = alloca i32, align 4
  %5 = alloca ptr, align 8
  %6 = alloca ptr, align 8
  %7 = alloca i32, align 4
  %8 = alloca i32, align 4
  %9 = alloca i32, align 4
  %10 = alloca i32, align 4
  store ptr %0, ptr %5, align 8, !tbaa !25
  store ptr %1, ptr %6, align 8, !tbaa !25
  store i32 %2, ptr %7, align 4, !tbaa !14
  call void @llvm.lifetime.start.p0(i64 4, ptr %8) #8
  store i32 0, ptr %8, align 4, !tbaa !14
  br label %11

11:                                               ; preds = %32, %3
  call void @llvm.lifetime.start.p0(i64 4, ptr %9) #8
  %12 = load ptr, ptr %5, align 8, !tbaa !25
  %13 = load i32, ptr %8, align 4, !tbaa !14
  %14 = call i32 @stbtt_GetFontOffsetForIndex(ptr noundef %12, i32 noundef %13)
  store i32 %14, ptr %9, align 4, !tbaa !14
  %15 = load i32, ptr %9, align 4, !tbaa !14
  %16 = icmp slt i32 %15, 0
  br i1 %16, label %17, label %19

17:                                               ; preds = %11
  %18 = load i32, ptr %9, align 4, !tbaa !14
  store i32 %18, ptr %4, align 4
  store i32 1, ptr %10, align 4
  br label %29

19:                                               ; preds = %11
  %20 = load ptr, ptr %5, align 8, !tbaa !25
  %21 = load i32, ptr %9, align 4, !tbaa !14
  %22 = load ptr, ptr %6, align 8, !tbaa !25
  %23 = load i32, ptr %7, align 4, !tbaa !14
  %24 = call i32 @stbtt__matches(ptr noundef %20, i32 noundef %21, ptr noundef %22, i32 noundef %23)
  %25 = icmp ne i32 %24, 0
  br i1 %25, label %26, label %28

26:                                               ; preds = %19
  %27 = load i32, ptr %9, align 4, !tbaa !14
  store i32 %27, ptr %4, align 4
  store i32 1, ptr %10, align 4
  br label %29

28:                                               ; preds = %19
  store i32 0, ptr %10, align 4
  br label %29

29:                                               ; preds = %28, %26, %17
  call void @llvm.lifetime.end.p0(i64 4, ptr %9) #8
  %30 = load i32, ptr %10, align 4
  switch i32 %30, label %35 [
    i32 0, label %31
  ]

31:                                               ; preds = %29
  br label %32

32:                                               ; preds = %31
  %33 = load i32, ptr %8, align 4, !tbaa !14
  %34 = add nsw i32 %33, 1
  store i32 %34, ptr %8, align 4, !tbaa !14
  br label %11

35:                                               ; preds = %29
  call void @llvm.lifetime.end.p0(i64 4, ptr %8) #8
  %36 = load i32, ptr %4, align 4
  ret i32 %36
}