; Function Attrs: nofree nounwind memory(argmem: read) uwtable
define i32 @stbtt_FindMatchingFont_internal(ptr noundef readonly captures(none) %0, ptr noundef readonly captures(none) %1, i32 noundef %2) local_unnamed_addr #29 {
  %4 = tail call i32 @stbtt_GetFontOffsetForIndex_internal(ptr noundef readonly %0, i32 noundef 0)
  %5 = icmp slt i32 %4, 0
  br i1 %5, label %.thread, label %.lr.ph

6:                                                ; preds = %.lr.ph
  %7 = add nuw nsw i32 %.01218, 1
  %8 = tail call i32 @stbtt_GetFontOffsetForIndex_internal(ptr noundef readonly %0, i32 noundef %7)
  %9 = icmp slt i32 %8, 0
  br i1 %9, label %.thread, label %.lr.ph

.lr.ph:                                           ; preds = %3, %6
  %10 = phi i32 [ %8, %6 ], [ %4, %3 ]
  %.01218 = phi i32 [ %7, %6 ], [ 0, %3 ]
  %11 = tail call i32 @stbtt__matches(ptr noundef %0, i32 noundef %10, ptr noundef %1, i32 noundef %2)
  %.not = icmp eq i32 %11, 0
  br i1 %.not, label %6, label %.thread

.thread:                                          ; preds = %.lr.ph, %6, %3
  %.lcssa = phi i32 [ %4, %3 ], [ %8, %6 ], [ %10, %.lr.ph ]
  ret i32 %.lcssa
}